target datalayout = "e-m:e-p270:32:32-p271:32:32-p272:64:64-i64:64-i128:128-f80:128-n8:16:32:64-S128"
target triple = "x86_64-pc-linux-gnu"

%struct.ossl_object_digest_info_st = type { %struct.asn1_string_st, ptr, %struct.X509_algor_st, %struct.asn1_string_st }
%struct.X509_algor_st = type { ptr, ptr }
%struct.asn1_string_st = type { i32, i32, ptr, i64 }

; Function Attrs: nounwind uwtable
define void @OSSL_OBJECT_DIGEST_INFO_get0_digest(ptr noundef %0, ptr noundef %1, ptr noundef %2, ptr noundef %3) #0 {
  %5 = alloca ptr, align 8
  %6 = alloca ptr, align 8
  %7 = alloca ptr, align 8
  %8 = alloca ptr, align 8
  store ptr %0, ptr %5, align 8, !tbaa !18
  store ptr %1, ptr %6, align 8, !tbaa !27
  store ptr %2, ptr %7, align 8, !tbaa !29
  store ptr %3, ptr %8, align 8, !tbaa !31
  %9 = load ptr, ptr %6, align 8, !tbaa !27
  %10 = icmp ne ptr %9, null
  br i1 %10, label %11, label %17

11:                                               ; preds = %4
  %12 = load ptr, ptr %5, align 8, !tbaa !18
  %13 = getelementptr inbounds nuw %struct.ossl_object_digest_info_st, ptr %12, i32 0, i32 0
  %14 = call i64 @ASN1_ENUMERATED_get(ptr noundef %13)
  %15 = trunc i64 %14 to i32
  %16 = load ptr, ptr %6, align 8, !tbaa !27
  store i32 %15, ptr %16, align 4, !tbaa !33
  br label %17

17:                                               ; preds = %11, %4
  %18 = load ptr, ptr %7, align 8, !tbaa !29
  %19 = icmp ne ptr %18, null
  br i1 %19, label %20, label %24

20:                                               ; preds = %17
  %21 = load ptr, ptr %5, align 8, !tbaa !18
  %22 = getelementptr inbounds nuw %struct.ossl_object_digest_info_st, ptr %21, i32 0, i32 2
  %23 = load ptr, ptr %7, align 8, !tbaa !29
  store ptr %22, ptr %23, align 8, !tbaa !35
  br label %24

24:                                               ; preds = %20, %17
  %25 = load ptr, ptr %8, align 8, !tbaa !31
  %26 = icmp ne ptr %25, null
  br i1 %26, label %27, label %31

27:                                               ; preds = %24
  %28 = load ptr, ptr %5, align 8, !tbaa !18
  %29 = getelementptr inbounds nuw %struct.ossl_object_digest_info_st, ptr %28, i32 0, i32 3
  %30 = load ptr, ptr %8, align 8, !tbaa !31
  store ptr %29, ptr %30, align 8, !tbaa !37
  br label %31

31:                                               ; preds = %27, %24
  ret void
}