; Function Attrs: nounwind uwtable
define void @OSSL_OBJECT_DIGEST_INFO_get0_digest(ptr noundef %0, ptr noundef writeonly captures(address_is_null) %1, ptr noundef writeonly captures(address_is_null) %2, ptr noundef writeonly captures(address_is_null) %3) local_unnamed_addr #1 {
  %.not = icmp eq ptr %1, null
  br i1 %.not, label %8, label %5

5:                                                ; preds = %4
  %6 = tail call i64 @ASN1_ENUMERATED_get(ptr noundef %0) #8
  %7 = trunc i64 %6 to i32
  store i32 %7, ptr %1, align 4, !tbaa !3
  br label %8

8:                                                ; preds = %5, %4
  %.not11 = icmp eq ptr %2, null
  br i1 %.not11, label %11, label %9

9:                                                ; preds = %8
  %10 = getelementptr inbounds nuw i8, ptr %0, i64 32
  store ptr %10, ptr %2, align 8, !tbaa !7
  br label %11

11:                                               ; preds = %9, %8
  %.not12 = icmp eq ptr %3, null
  br i1 %.not12, label %14, label %12

12:                                               ; preds = %11
  %13 = getelementptr inbounds nuw i8, ptr %0, i64 48
  store ptr %13, ptr %3, align 8, !tbaa !10
  br label %14

14:                                               ; preds = %12, %11
  ret void
}